; Function Attrs: nounwind uwtable
define hidden void @SDL_FreeTemporaryMemory() local_unnamed_addr #0 {
  %1 = tail call ptr @SDL_GetTLS_REAL(ptr noundef nonnull @SDL_temporary_memory) #8
  %.not = icmp eq ptr %1, null
  br i1 %.not, label %.loopexit, label %.preheader

.preheader:                                       ; preds = %0
  %2 = load ptr, ptr %1, align 8
  %.not79 = icmp eq ptr %2, null
  br i1 %.not79, label %.loopexit, label %.lr.ph

.lr.ph:                                           ; preds = %.preheader
  %3 = getelementptr inbounds nuw i8, ptr %1, i64 8
  br label %4

4:                                                ; preds = %.lr.ph, %SDL_UnlinkTemporaryMemoryEntry.exit
  %5 = phi ptr [ %2, %.lr.ph ], [ %19, %SDL_UnlinkTemporaryMemoryEntry.exit ]
  %6 = getelementptr inbounds nuw i8, ptr %5, i64 16
  %7 = load ptr, ptr %6, align 8
  store ptr %7, ptr %1, align 8
  %8 = load ptr, ptr %3, align 8
  %9 = icmp eq ptr %8, %5
  %10 = getelementptr inbounds nuw i8, ptr %5, i64 8
  %11 = load ptr, ptr %10, align 8
  br i1 %9, label %12, label %._crit_edge.i

12:                                               ; preds = %4
  store ptr %11, ptr %3, align 8
  %.pre21.i.pre = load ptr, ptr %6, align 8
  br label %._crit_edge.i

._crit_edge.i:                                    ; preds = %12, %4
  %.pre21.i = phi ptr [ %.pre21.i.pre, %12 ], [ %7, %4 ]
  %.not.i8 = icmp eq ptr %11, null
  br i1 %.not.i8, label %._crit_edge19.i, label %13

13:                                               ; preds = %._crit_edge.i
  %14 = getelementptr inbounds nuw i8, ptr %11, i64 16
  store ptr %.pre21.i, ptr %14, align 8
  br label %._crit_edge19.i

._crit_edge19.i:                                  ; preds = %13, %._crit_edge.i
  %.not18.i = icmp eq ptr %.pre21.i, null
  br i1 %.not18.i, label %SDL_UnlinkTemporaryMemoryEntry.exit, label %15

15:                                               ; preds = %._crit_edge19.i
  %16 = load ptr, ptr %10, align 8
  %17 = getelementptr inbounds nuw i8, ptr %.pre21.i, i64 8
  store ptr %16, ptr %17, align 8
  br label %SDL_UnlinkTemporaryMemoryEntry.exit

SDL_UnlinkTemporaryMemoryEntry.exit:              ; preds = %._crit_edge19.i, %15
  tail call void @llvm.memset.p0.i64(ptr noundef nonnull align 8 dereferenceable(16) %10, i8 0, i64 16, i1 false)
  %18 = load ptr, ptr %5, align 8
  tail call void @SDL_free_REAL(ptr noundef %18) #8
  tail call void @SDL_free_REAL(ptr noundef nonnull %5) #8
  %19 = load ptr, ptr %1, align 8
  %.not7 = icmp eq ptr %19, null
  br i1 %.not7, label %.loopexit, label %4, !llvm.loop !5

.loopexit:                                        ; preds = %SDL_UnlinkTemporaryMemoryEntry.exit, %.preheader, %0
  ret void
}